; Function Attrs: mustprogress nofree norecurse nosync nounwind willreturn memory(read, argmem: readwrite, inaccessiblemem: none) uwtable
define internal range(i32 -12, 1) i32 @HSC_Horizontal_Line_Backward(ptr noundef captures(none) %0) #7 {
  %2 = getelementptr inbounds nuw i8, ptr %0, i64 72
  %3 = load ptr, ptr %2, align 8, !tbaa !14
  %4 = getelementptr inbounds nuw i8, ptr %3, i64 4
  %5 = load i16, ptr %4, align 4, !tbaa !27
  %6 = sext i16 %5 to i32
  %7 = icmp slt i16 %5, 0
  %8 = tail call i32 @llvm.abs.i32(i32 range(i32 -32768, 32769) %6, i1 true)
  %9 = getelementptr inbounds nuw i8, ptr %0, i64 20
  %10 = load i32, ptr %9, align 4, !tbaa !31
  br i1 %7, label %11, label %24

11:                                               ; preds = %1
  %12 = add nsw i32 %10, %8
  %13 = getelementptr inbounds nuw i8, ptr %3, i64 16
  %14 = load i32, ptr %13, align 8, !tbaa !26
  %15 = sub nsw i32 %14, %6
  %16 = icmp sgt i32 %12, %15
  %17 = sub nsw i32 %15, %10
  %spec.select.i = select i1 %16, i32 %17, i32 %8
  %18 = icmp sgt i32 %spec.select.i, 0
  br i1 %18, label %19, label %HSC_Generic.exit

19:                                               ; preds = %11
  %20 = getelementptr inbounds nuw i8, ptr %0, i64 12
  %21 = load i32, ptr %20, align 4, !tbaa !18
  %22 = add nsw i32 %21, %spec.select.i
  store i32 %22, ptr %20, align 4, !tbaa !18
  %23 = add nsw i32 %spec.select.i, %10
  br label %HSC_Generic.exit.sink.split

24:                                               ; preds = %1
  %spec.select29.i = tail call i32 @llvm.smin.i32(i32 %8, i32 %10)
  %25 = icmp sgt i32 %spec.select29.i, 0
  br i1 %25, label %26, label %HSC_Generic.exit

26:                                               ; preds = %24
  %27 = getelementptr inbounds nuw i8, ptr %0, i64 12
  %28 = load i32, ptr %27, align 4, !tbaa !18
  %29 = sub nsw i32 %28, %spec.select29.i
  store i32 %29, ptr %27, align 4, !tbaa !18
  %30 = sub nsw i32 %10, %spec.select29.i
  br label %HSC_Generic.exit.sink.split

HSC_Generic.exit.sink.split:                      ; preds = %26, %19
  %.sink = phi i32 [ %23, %19 ], [ %30, %26 ]
  store i32 %.sink, ptr %9, align 4, !tbaa !31
  br label %HSC_Generic.exit

HSC_Generic.exit:                                 ; preds = %HSC_Generic.exit.sink.split, %11, %24
  %.025.i = phi i32 [ -12, %11 ], [ -12, %24 ], [ 0, %HSC_Generic.exit.sink.split ]
  ret i32 %.025.i
}